CCS PCM C Compiler, Version 5.007, 61971               02-Tem-16 03:07

               Filename:   C:\Users\Melisa\Desktop\PC ÝLE USB KONTOLLÜ KABLOSUZ (RF ÝLE) 4 KANALLI RÖLE DEVRESÝ\DEVRE ÞEMASI VE KODLAR\CCS C\Alýcý\628_ALICI.lst

               ROM used:   198 words (10%)
                           Largest free fragment is 1850
               RAM used:   7 (3%) at main() level
                           7 (3%) worst case
               Stack used: 0 locations
               Stack size: 8

*
0000:  MOVLW  00
0001:  MOVWF  0A
0002:  GOTO   029
0003:  NOP
.................... #include <16F628.H> 
.................... //////// Standard Header file for the PIC16F628 device //////////////// 
.................... #device PIC16F628 
....................  
.................... #list 
....................  
.................... #fuses  INTRC_IO,NOMCLR,NOWDT,NOPROTECT,NOBROWNOUT,NOLVP,NOPUT,NOCPD 
.................... #use delay(clock=4000000) 
.................... #use rs232(baud=2400,parity=N, rcv=pin_B1, bits=8,ERRORS,BRGH1OK) 
0004:  BSF    03.5
0005:  BSF    06.1
0006:  BCF    03.5
0007:  BTFSC  06.1
0008:  GOTO   007
0009:  MOVLW  08
000A:  MOVWF  77
000B:  CLRF   21
000C:  BSF    77.7
000D:  GOTO   01C
000E:  BCF    77.7
000F:  GOTO   01C
0010:  BCF    03.0
0011:  BTFSC  06.1
0012:  BSF    03.0
0013:  RRF    21,F
0014:  BSF    77.6
0015:  GOTO   01C
0016:  BCF    77.6
0017:  DECFSZ 77,F
0018:  GOTO   010
0019:  MOVF   21,W
001A:  MOVWF  78
001B:  GOTO   028
001C:  MOVLW  84
001D:  BTFSC  77.7
001E:  MOVLW  24
001F:  MOVWF  78
0020:  DECFSZ 78,F
0021:  GOTO   020
0022:  GOTO   023
0023:  BTFSC  77.7
0024:  GOTO   00E
0025:  BTFSC  77.6
0026:  GOTO   016
0027:  GOTO   010
0028:  RETURN
....................  
.................... #define VeriTransferLed pin_a3 
.................... #define DevrePowerLedLed pin_a2   
.................... int i=0;    
....................    
.................... void UsbTransferVeriOnayi()   
.................... { 
....................    for(i=0;i<5;i++) 
....................    { 
....................       output_high(VeriTransferLed); 
....................       delay_ms(50); 
....................       output_low(VeriTransferLed);    
....................       delay_ms(50);   
....................    } 
.................... } 
....................  
.................... void main(){     
0029:  BSF    03.5
002A:  BCF    05.0
002B:  BCF    03.5
002C:  BSF    05.0
002D:  CLRF   20
002E:  MOVLW  07
002F:  MOVWF  1F
0030:  BCF    03.7
0031:  MOVLW  1F
0032:  ANDWF  03,F
....................     
....................    clear_interrupt(INT_RDA); 
0033:  BCF    0C.5
....................    clear_interrupt(INT_EXT); 
0034:  BCF    0B.1
....................    Disable_interrupts(GLOBAL); 
0035:  BCF    0B.6
0036:  BCF    0B.7
0037:  BTFSC  0B.7
0038:  GOTO   036
....................    port_b_pullups(TRUE); 
0039:  BSF    03.5
003A:  BCF    01.7
....................    setup_timer_0(RTCC_INTERNAL); 
003B:  MOVF   01,W
003C:  ANDLW  C0
003D:  MOVWF  01
....................    setup_timer_1(T1_DISABLED); 
003E:  BCF    03.5
003F:  CLRF   10
....................    setup_timer_2(T2_DISABLED,0,1); 
0040:  MOVLW  00
0041:  MOVWF  78
0042:  MOVWF  12
0043:  MOVLW  00
0044:  BSF    03.5
0045:  MOVWF  12
....................    setup_comparator(NC_NC_NC_NC); 
0046:  MOVLW  07
0047:  BCF    03.5
0048:  MOVWF  1F
0049:  BSF    03.5
004A:  MOVF   05,W
004B:  MOVWF  05
004C:  MOVLW  02
004D:  MOVWF  77
004E:  DECFSZ 77,F
004F:  GOTO   04E
0050:  GOTO   051
0051:  NOP
0052:  BCF    03.5
0053:  MOVF   1F,W
0054:  BCF    0C.6
....................    setup_vref(FALSE); 
0055:  BSF    03.5
0056:  CLRF   1F
....................    enable_interrupts(INT_RDA); 
0057:  BSF    0C.5
....................    enable_interrupts(GLOBAL); 
0058:  MOVLW  C0
0059:  BCF    03.5
005A:  IORWF  0B,F
....................     
....................     
....................    Disable_interrupts(GLOBAL); 
005B:  BCF    0B.6
005C:  BCF    0B.7
005D:  BTFSC  0B.7
005E:  GOTO   05C
....................    setup_CCP1(CCP_OFF);            // CCP1 birimi devre dýþý 
005F:  MOVLW  F0
0060:  ANDWF  17,F
....................  
....................    set_tris_b(01000000);  
0061:  MOVLW  00
0062:  BSF    03.5
0063:  MOVWF  06
....................    set_tris_a(0x00);    
0064:  MOVWF  05
....................    
....................    output_low(pin_b3); 
0065:  BCF    06.3
0066:  BCF    03.5
0067:  BCF    06.3
....................    output_low(pin_b7); 
0068:  BSF    03.5
0069:  BCF    06.7
006A:  BCF    03.5
006B:  BCF    06.7
....................    output_low(pin_b6); 
006C:  BSF    03.5
006D:  BCF    06.6
006E:  BCF    03.5
006F:  BCF    06.6
....................    output_low(pin_b5); 
0070:  BSF    03.5
0071:  BCF    06.5
0072:  BCF    03.5
0073:  BCF    06.5
....................    output_low(VeriTransferLed); 
0074:  BSF    03.5
0075:  BCF    05.3
0076:  BCF    03.5
0077:  BCF    05.3
....................    output_High(DevrePowerLedLed); 
0078:  BSF    03.5
0079:  BCF    05.2
007A:  BCF    03.5
007B:  BSF    05.2
....................  
....................    while(1)   
....................    {          
....................       if(getc()==110){ output_high(pin_b4); }  //1 Röle Aç 
007C:  CALL   004
007D:  MOVF   78,W
007E:  SUBLW  6E
007F:  BTFSS  03.2
0080:  GOTO   085
0081:  BSF    03.5
0082:  BCF    06.4
0083:  BCF    03.5
0084:  BSF    06.4
....................       if(getc()==120){ output_low(pin_b4);  }   //1 Röle Kapat 
0085:  CALL   004
0086:  MOVF   78,W
0087:  SUBLW  78
0088:  BTFSS  03.2
0089:  GOTO   08E
008A:  BSF    03.5
008B:  BCF    06.4
008C:  BCF    03.5
008D:  BCF    06.4
....................       if(getc()==130){ output_high(pin_b7); }  //2 Röle Aç 
008E:  CALL   004
008F:  MOVF   78,W
0090:  SUBLW  82
0091:  BTFSS  03.2
0092:  GOTO   097
0093:  BSF    03.5
0094:  BCF    06.7
0095:  BCF    03.5
0096:  BSF    06.7
....................       if(getc()==140){ output_low(pin_b7); }   //2 Röle Kapat 
0097:  CALL   004
0098:  MOVF   78,W
0099:  SUBLW  8C
009A:  BTFSS  03.2
009B:  GOTO   0A0
009C:  BSF    03.5
009D:  BCF    06.7
009E:  BCF    03.5
009F:  BCF    06.7
....................       if(getc()==190){ output_high(pin_b6); }  //3 Röle Aç 
00A0:  CALL   004
00A1:  MOVF   78,W
00A2:  SUBLW  BE
00A3:  BTFSS  03.2
00A4:  GOTO   0A9
00A5:  BSF    03.5
00A6:  BCF    06.6
00A7:  BCF    03.5
00A8:  BSF    06.6
....................       if(getc()==200){ output_low(pin_b6); }   //3 Röle Kapat 
00A9:  CALL   004
00AA:  MOVF   78,W
00AB:  SUBLW  C8
00AC:  BTFSS  03.2
00AD:  GOTO   0B2
00AE:  BSF    03.5
00AF:  BCF    06.6
00B0:  BCF    03.5
00B1:  BCF    06.6
....................       if(getc()==170){ output_high(pin_b5); }  //4 Röle Aç 
00B2:  CALL   004
00B3:  MOVF   78,W
00B4:  SUBLW  AA
00B5:  BTFSS  03.2
00B6:  GOTO   0BB
00B7:  BSF    03.5
00B8:  BCF    06.5
00B9:  BCF    03.5
00BA:  BSF    06.5
....................       if(getc()==180){ output_low(pin_b5); }   //4 Röle Kapat 
00BB:  CALL   004
00BC:  MOVF   78,W
00BD:  SUBLW  B4
00BE:  BTFSS  03.2
00BF:  GOTO   0C4
00C0:  BSF    03.5
00C1:  BCF    06.5
00C2:  BCF    03.5
00C3:  BCF    06.5
00C4:  GOTO   07C
....................     
....................    } 
.................... } 
....................   
00C5:  SLEEP
....................   

Configuration Fuses:
   Word  1: 3F18   NOWDT NOPUT INTRC_IO NOMCLR NOBROWNOUT NOLVP NOCPD NOPROTECT
